; Function Attrs: mustprogress nounwind uwtable
define dso_local noundef ptr @_ZN4llvm15getDISubprogramEPKNS_6MDNodeE(ptr noundef %0) local_unnamed_addr #0 {
  %.not.i.i = icmp eq ptr %0, null
  br i1 %.not.i.i, label %_ZN4llvm16dyn_cast_or_nullINS_12DILocalScopeEKNS_6MDNodeEEEDaPT0_.exit.thread, label %2

2:                                                ; preds = %1
  %3 = load i8, ptr %0, align 4
  %4 = add i8 %3, -18
  %switch.i.i.i.i.i.i.i.i.i = icmp ult i8 %4, 3
  br i1 %switch.i.i.i.i.i.i.i.i.i, label %_ZN4llvm16dyn_cast_or_nullINS_12DILocalScopeEKNS_6MDNodeEEEDaPT0_.exit, label %_ZN4llvm16dyn_cast_or_nullINS_12DILocalScopeEKNS_6MDNodeEEEDaPT0_.exit.thread

_ZN4llvm16dyn_cast_or_nullINS_12DILocalScopeEKNS_6MDNodeEEEDaPT0_.exit: ; preds = %2
  %5 = tail call noundef ptr @_ZNK4llvm12DILocalScope13getSubprogramEv(ptr noundef nonnull align 8 dereferenceable(16) %0) #15
  br label %_ZN4llvm16dyn_cast_or_nullINS_12DILocalScopeEKNS_6MDNodeEEEDaPT0_.exit.thread

_ZN4llvm16dyn_cast_or_nullINS_12DILocalScopeEKNS_6MDNodeEEEDaPT0_.exit.thread: ; preds = %1, %2, %_ZN4llvm16dyn_cast_or_nullINS_12DILocalScopeEKNS_6MDNodeEEEDaPT0_.exit
  %.0 = phi ptr [ %5, %_ZN4llvm16dyn_cast_or_nullINS_12DILocalScopeEKNS_6MDNodeEEEDaPT0_.exit ], [ null, %2 ], [ null, %1 ]
  ret ptr %.0
}